; ModuleID = '27/799.c'
source_filename = "27/799.c"
target datalayout = "e-m:e-p270:32:32-p271:32:32-p272:64:64-i64:64-f80:128-n8:16:32:64-S128"
target triple = "x86_64-pc-linux-gnu"

@.str = private unnamed_addr constant [3 x i8] c"%d\00", align 1
@.str.1 = private unnamed_addr constant [12 x i8] c"%lf %lf %lf\00", align 1
@.str.2 = private unnamed_addr constant [12 x i8] c"x1=x2=%.5f\0A\00", align 1
@.str.3 = private unnamed_addr constant [17 x i8] c"x1=%.5f;x2=%.5f\0A\00", align 1
@.str.4 = private unnamed_addr constant [29 x i8] c"x1=%.5f+%.5fi;x2=%.5f-%.5fi\0A\00", align 1

; Function Attrs: noinline nounwind uwtable
define dso_local i32 @main() #0 {
  %1 = alloca i32, align 4
  %2 = alloca i32, align 4
  %3 = alloca i32, align 4
  %4 = alloca double, align 8
  %5 = alloca double, align 8
  %6 = alloca double, align 8
  %7 = alloca double, align 8
  %8 = alloca double, align 8
  %9 = alloca double, align 8
  %10 = alloca double, align 8
  %11 = alloca double, align 8
  store i32 0, i32* %1, align 4
  store double 0.000000e+00, double* %4, align 8
  store double 0.000000e+00, double* %5, align 8
  store double 0.000000e+00, double* %6, align 8
  %12 = call i32 (i8*, ...) @__isoc99_scanf(i8* getelementptr inbounds ([3 x i8], [3 x i8]* @.str, i64 0, i64 0), i32* %2)
  store i32 1, i32* %3, align 4
  br label %13

13:                                               ; preds = %124, %0
  %14 = load i32, i32* %3, align 4
  %15 = load i32, i32* %2, align 4
  %16 = icmp sle i32 %14, %15
  br i1 %16, label %17, label %127

17:                                               ; preds = %13
  %18 = call i32 (i8*, ...) @__isoc99_scanf(i8* getelementptr inbounds ([12 x i8], [12 x i8]* @.str.1, i64 0, i64 0), double* %4, double* %5, double* %6)
  %19 = load double, double* %5, align 8
  %20 = load double, double* %5, align 8
  %21 = fmul double %19, %20
  %22 = load double, double* %4, align 8
  %23 = fmul double 4.000000e+00, %22
  %24 = load double, double* %6, align 8
  %25 = fmul double %23, %24
  %26 = fsub double %21, %25
  store double %26, double* %11, align 8
  %27 = load double, double* %11, align 8
  %28 = fcmp oeq double %27, 0.000000e+00
  br i1 %28, label %29, label %62

29:                                               ; preds = %17
  %30 = load double, double* %5, align 8
  %31 = fneg double %30
  %32 = load double, double* %5, align 8
  %33 = load double, double* %5, align 8
  %34 = fmul double %32, %33
  %35 = load double, double* %4, align 8
  %36 = fmul double 4.000000e+00, %35
  %37 = load double, double* %6, align 8
  %38 = fmul double %36, %37
  %39 = fsub double %34, %38
  %40 = call double @sqrt(double %39) #3
  %41 = fadd double %31, %40
  %42 = load double, double* %4, align 8
  %43 = fmul double 2.000000e+00, %42
  %44 = fdiv double %41, %43
  store double %44, double* %7, align 8
  %45 = load double, double* %5, align 8
  %46 = fneg double %45
  %47 = load double, double* %5, align 8
  %48 = load double, double* %5, align 8
  %49 = fmul double %47, %48
  %50 = load double, double* %4, align 8
  %51 = fmul double 4.000000e+00, %50
  %52 = load double, double* %6, align 8
  %53 = fmul double %51, %52
  %54 = fsub double %49, %53
  %55 = call double @sqrt(double %54) #3
  %56 = fsub double %46, %55
  %57 = load double, double* %4, align 8
  %58 = fmul double 2.000000e+00, %57
  %59 = fdiv double %56, %58
  store double %59, double* %8, align 8
  %60 = load double, double* %7, align 8
  %61 = call i32 (i8*, ...) @printf(i8* getelementptr inbounds ([12 x i8], [12 x i8]* @.str.2, i64 0, i64 0), double %60)
  br label %62

62:                                               ; preds = %29, %17
  %63 = load double, double* %11, align 8
  %64 = fcmp ogt double %63, 0.000000e+00
  br i1 %64, label %65, label %99

65:                                               ; preds = %62
  %66 = load double, double* %5, align 8
  %67 = fneg double %66
  %68 = load double, double* %5, align 8
  %69 = load double, double* %5, align 8
  %70 = fmul double %68, %69
  %71 = load double, double* %4, align 8
  %72 = fmul double 4.000000e+00, %71
  %73 = load double, double* %6, align 8
  %74 = fmul double %72, %73
  %75 = fsub double %70, %74
  %76 = call double @sqrt(double %75) #3
  %77 = fadd double %67, %76
  %78 = load double, double* %4, align 8
  %79 = fmul double 2.000000e+00, %78
  %80 = fdiv double %77, %79
  store double %80, double* %7, align 8
  %81 = load double, double* %5, align 8
  %82 = fneg double %81
  %83 = load double, double* %5, align 8
  %84 = load double, double* %5, align 8
  %85 = fmul double %83, %84
  %86 = load double, double* %4, align 8
  %87 = fmul double 4.000000e+00, %86
  %88 = load double, double* %6, align 8
  %89 = fmul double %87, %88
  %90 = fsub double %85, %89
  %91 = call double @sqrt(double %90) #3
  %92 = fsub double %82, %91
  %93 = load double, double* %4, align 8
  %94 = fmul double 2.000000e+00, %93
  %95 = fdiv double %92, %94
  store double %95, double* %8, align 8
  %96 = load double, double* %7, align 8
  %97 = load double, double* %8, align 8
  %98 = call i32 (i8*, ...) @printf(i8* getelementptr inbounds ([17 x i8], [17 x i8]* @.str.3, i64 0, i64 0), double %96, double %97)
  br label %99

99:                                               ; preds = %65, %62
  %100 = load double, double* %11, align 8
  %101 = fcmp olt double %100, 0.000000e+00
  br i1 %101, label %102, label %123

102:                                              ; preds = %99
  %103 = load double, double* %5, align 8
  %104 = fneg double %103
  %105 = load double, double* %4, align 8
  %106 = fmul double 2.000000e+00, %105
  %107 = fdiv double %104, %106
  store double %107, double* %9, align 8
  %108 = load double, double* %11, align 8
  %109 = fneg double %108
  %110 = call double @sqrt(double %109) #3
  %111 = load double, double* %4, align 8
  %112 = fmul double 2.000000e+00, %111
  %113 = fdiv double %110, %112
  store double %113, double* %10, align 8
  %114 = load double, double* %9, align 8
  %115 = fcmp oeq double %114, 0.000000e+00
  br i1 %115, label %116, label %117

116:                                              ; preds = %102
  store double 0.000000e+00, double* %9, align 8
  br label %117

117:                                              ; preds = %116, %102
  %118 = load double, double* %9, align 8
  %119 = load double, double* %10, align 8
  %120 = load double, double* %9, align 8
  %121 = load double, double* %10, align 8
  %122 = call i32 (i8*, ...) @printf(i8* getelementptr inbounds ([29 x i8], [29 x i8]* @.str.4, i64 0, i64 0), double %118, double %119, double %120, double %121)
  br label %123

123:                                              ; preds = %117, %99
  br label %124

124:                                              ; preds = %123
  %125 = load i32, i32* %3, align 4
  %126 = add nsw i32 %125, 1
  store i32 %126, i32* %3, align 4
  br label %13

127:                                              ; preds = %13
  ret i32 0
}

declare dso_local i32 @__isoc99_scanf(i8*, ...) #1

; Function Attrs: nounwind
declare dso_local double @sqrt(double) #2

declare dso_local i32 @printf(i8*, ...) #1


!llvm.module.flags = !{!0}
!llvm.ident = !{!1}

!0 = !{i32 1, !"wchar_size", i32 4}
!1 = !{!"clang version 10.0.0-4ubuntu1 "}
